; Function Attrs: mustprogress uwtable
define internal noundef zeroext i1 @_ZN12_GLOBAL__N_115MdpErrorHandler7onErrorEPN3gmx14UserInputErrorERKNS1_16KeyValueTreePathE(ptr nocapture noundef nonnull readonly align 8 dereferenceable(24) %0, ptr noundef %1, ptr noundef nonnull align 8 dereferenceable(24) %2) unnamed_addr #1 align 2 personality ptr @__gxx_personality_v0 {
  %4 = alloca %"class.gmx::KeyValueTreePath", align 8
  %5 = alloca %"class.std::__cxx11::basic_string", align 8
  %6 = alloca %"class.std::__cxx11::basic_string", align 8
  %7 = alloca %"class.std::__cxx11::basic_string", align 8
  %8 = getelementptr inbounds i8, ptr %0, i64 16
  %.val = load ptr, ptr %8, align 8
  call void @llvm.lifetime.start.p0(i64 24, ptr nonnull %4)
  %.not.i = icmp eq ptr %.val, null
  br i1 %.not.i, label %23, label %9

9:                                                ; preds = %3
  %10 = load ptr, ptr %.val, align 8, !noalias !55
  %11 = getelementptr inbounds i8, ptr %10, i64 16
  %12 = load ptr, ptr %11, align 8, !noalias !55
  call void %12(ptr dead_on_unwind nonnull writable sret(%"class.gmx::KeyValueTreePath") align 8 %4, ptr noundef nonnull align 8 dereferenceable(8) %.val, ptr noundef nonnull align 8 dereferenceable(24) %2), !noalias !55
  %13 = load ptr, ptr %4, align 8, !noalias !55
  invoke void @_ZNSt7__cxx1112basic_stringIcSt11char_traitsIcESaIcEEC1ERKS4_(ptr noundef nonnull align 8 dereferenceable(32) %6, ptr noundef nonnull align 8 dereferenceable(32) %13)
          to label %14 unwind label %21

14:                                               ; preds = %9
  %15 = load ptr, ptr %4, align 8, !noalias !55
  %16 = getelementptr inbounds i8, ptr %4, i64 8
  %17 = load ptr, ptr %16, align 8, !noalias !55
  %.not4.i.i.i.i.i.i = icmp eq ptr %15, %17
  br i1 %.not4.i.i.i.i.i.i, label %_ZSt8_DestroyIPNSt7__cxx1112basic_stringIcSt11char_traitsIcESaIcEEES5_EvT_S7_RSaIT0_E.exit.i.i.i, label %.lr.ph.i.i.i.i.i.i

.lr.ph.i.i.i.i.i.i:                               ; preds = %14, %.lr.ph.i.i.i.i.i.i
  %.05.i.i.i.i.i.i = phi ptr [ %18, %.lr.ph.i.i.i.i.i.i ], [ %15, %14 ]
  call void @_ZNSt7__cxx1112basic_stringIcSt11char_traitsIcESaIcEED1Ev(ptr noundef nonnull align 8 dereferenceable(32) %.05.i.i.i.i.i.i) #24
  %18 = getelementptr inbounds i8, ptr %.05.i.i.i.i.i.i, i64 32
  %.not.i.i.i.i.i.i = icmp eq ptr %18, %17
  br i1 %.not.i.i.i.i.i.i, label %_ZSt8_DestroyIPNSt7__cxx1112basic_stringIcSt11char_traitsIcESaIcEEES5_EvT_S7_RSaIT0_E.exitthread-pre-split.i.i.i, label %.lr.ph.i.i.i.i.i.i, !llvm.loop !5

_ZSt8_DestroyIPNSt7__cxx1112basic_stringIcSt11char_traitsIcESaIcEEES5_EvT_S7_RSaIT0_E.exitthread-pre-split.i.i.i: ; preds = %.lr.ph.i.i.i.i.i.i
  %.pr.i.i.i = load ptr, ptr %4, align 8, !noalias !55
  br label %_ZSt8_DestroyIPNSt7__cxx1112basic_stringIcSt11char_traitsIcESaIcEEES5_EvT_S7_RSaIT0_E.exit.i.i.i

_ZSt8_DestroyIPNSt7__cxx1112basic_stringIcSt11char_traitsIcESaIcEEES5_EvT_S7_RSaIT0_E.exit.i.i.i: ; preds = %_ZSt8_DestroyIPNSt7__cxx1112basic_stringIcSt11char_traitsIcESaIcEEES5_EvT_S7_RSaIT0_E.exitthread-pre-split.i.i.i, %14
  %19 = phi ptr [ %.pr.i.i.i, %_ZSt8_DestroyIPNSt7__cxx1112basic_stringIcSt11char_traitsIcESaIcEEES5_EvT_S7_RSaIT0_E.exitthread-pre-split.i.i.i ], [ %15, %14 ]
  %.not.i.i.i.i.i = icmp eq ptr %19, null
  br i1 %.not.i.i.i.i.i, label %_ZN12_GLOBAL__N_115MdpErrorHandler13getOptionNameB5cxx11ERKN3gmx16KeyValueTreePathE.exit, label %20

20:                                               ; preds = %_ZSt8_DestroyIPNSt7__cxx1112basic_stringIcSt11char_traitsIcESaIcEEES5_EvT_S7_RSaIT0_E.exit.i.i.i
  call void @_ZdlPv(ptr noundef nonnull %19) #27
  br label %_ZN12_GLOBAL__N_115MdpErrorHandler13getOptionNameB5cxx11ERKN3gmx16KeyValueTreePathE.exit

common.resume:                                    ; preds = %38, %39, %21
  %common.resume.op = phi { ptr, i32 } [ %22, %21 ], [ %40, %39 ], [ %.pn, %38 ]
  resume { ptr, i32 } %common.resume.op

21:                                               ; preds = %9
  %22 = landingpad { ptr, i32 }
          cleanup
  call void @_ZN3gmx16KeyValueTreePathD2Ev(ptr noundef nonnull align 8 dereferenceable(24) %4) #24
  br label %common.resume

23:                                               ; preds = %3
  %24 = load ptr, ptr %2, align 8, !noalias !55
  call void @_ZNSt7__cxx1112basic_stringIcSt11char_traitsIcESaIcEEC1ERKS4_(ptr noundef nonnull align 8 dereferenceable(32) %6, ptr noundef nonnull align 8 dereferenceable(32) %24)
  br label %_ZN12_GLOBAL__N_115MdpErrorHandler13getOptionNameB5cxx11ERKN3gmx16KeyValueTreePathE.exit

_ZN12_GLOBAL__N_115MdpErrorHandler13getOptionNameB5cxx11ERKN3gmx16KeyValueTreePathE.exit: ; preds = %_ZSt8_DestroyIPNSt7__cxx1112basic_stringIcSt11char_traitsIcESaIcEEES5_EvT_S7_RSaIT0_E.exit.i.i.i, %20, %23
  call void @llvm.lifetime.end.p0(i64 24, ptr nonnull %4)
  %25 = call noundef ptr @_ZNKSt7__cxx1112basic_stringIcSt11char_traitsIcESaIcEE5c_strEv(ptr noundef nonnull align 8 dereferenceable(32) %6) #24
  invoke void (ptr, ptr, ...) @_ZN3gmx12formatStringB5cxx11EPKcz(ptr dead_on_unwind nonnull writable sret(%"class.std::__cxx11::basic_string") align 8 %5, ptr noundef nonnull @.str.590, ptr noundef %25)
          to label %26 unwind label %34

26:                                               ; preds = %_ZN12_GLOBAL__N_115MdpErrorHandler13getOptionNameB5cxx11ERKN3gmx16KeyValueTreePathE.exit
  invoke void @_ZN3gmx16GromacsException14prependContextERKNSt7__cxx1112basic_stringIcSt11char_traitsIcESaIcEEE(ptr noundef nonnull align 8 dereferenceable(24) %1, ptr noundef nonnull align 8 dereferenceable(32) %5)
          to label %27 unwind label %36

27:                                               ; preds = %26
  call void @_ZNSt7__cxx1112basic_stringIcSt11char_traitsIcESaIcEED1Ev(ptr noundef nonnull align 8 dereferenceable(32) %5) #24
  call void @_ZNSt7__cxx1112basic_stringIcSt11char_traitsIcESaIcEED1Ev(ptr noundef nonnull align 8 dereferenceable(32) %6) #24
  call void @_ZN3gmx30formatExceptionMessageToStringB5cxx11ERKSt9exception(ptr dead_on_unwind nonnull writable sret(%"class.std::__cxx11::basic_string") align 8 %7, ptr noundef nonnull align 8 dereferenceable(8) %1)
  %28 = getelementptr inbounds i8, ptr %0, i64 8
  %29 = load ptr, ptr %28, align 8
  %30 = call { i64, ptr } @_ZNKSt7__cxx1112basic_stringIcSt11char_traitsIcESaIcEEcvSt17basic_string_viewIcS2_EEv(ptr noundef nonnull align 8 dereferenceable(32) %7) #24
  %31 = extractvalue { i64, ptr } %30, 0
  %32 = extractvalue { i64, ptr } %30, 1
  invoke void @_ZN14WarningHandler8addErrorESt17basic_string_viewIcSt11char_traitsIcEE(ptr noundef nonnull align 8 dereferenceable(64) %29, i64 %31, ptr %32)
          to label %33 unwind label %39

33:                                               ; preds = %27
  call void @_ZNSt7__cxx1112basic_stringIcSt11char_traitsIcESaIcEED1Ev(ptr noundef nonnull align 8 dereferenceable(32) %7) #24
  ret i1 true

34:                                               ; preds = %_ZN12_GLOBAL__N_115MdpErrorHandler13getOptionNameB5cxx11ERKN3gmx16KeyValueTreePathE.exit
  %35 = landingpad { ptr, i32 }
          cleanup
  br label %38

36:                                               ; preds = %26
  %37 = landingpad { ptr, i32 }
          cleanup
  call void @_ZNSt7__cxx1112basic_stringIcSt11char_traitsIcESaIcEED1Ev(ptr noundef nonnull align 8 dereferenceable(32) %5) #24
  br label %38

38:                                               ; preds = %36, %34
  %.pn = phi { ptr, i32 } [ %37, %36 ], [ %35, %34 ]
  call void @_ZNSt7__cxx1112basic_stringIcSt11char_traitsIcESaIcEED1Ev(ptr noundef nonnull align 8 dereferenceable(32) %6) #24
  br label %common.resume

39:                                               ; preds = %27
  %40 = landingpad { ptr, i32 }
          cleanup
  call void @_ZNSt7__cxx1112basic_stringIcSt11char_traitsIcESaIcEED1Ev(ptr noundef nonnull align 8 dereferenceable(32) %7) #24
  br label %common.resume
}